
led.elf:     file format elf32-littlearm

Disassembly of section .text:

00000000 <_start>:
   0:	e3a0da01 	mov	sp, #4096	; 0x1000
   4:	eb000000 	bl	c <main>

00000008 <halt>:
   8:	eafffffe 	b	8 <halt>

0000000c <main>:
   c:	e1a0c00d 	mov	ip, sp
  10:	e92dd800 	stmdb	sp!, {fp, ip, lr, pc}
  14:	e24cb004 	sub	fp, ip, #4	; 0x4
  18:	e24dd008 	sub	sp, sp, #8	; 0x8
  1c:	e3a02456 	mov	r2, #1442840576	; 0x56000000
  20:	e2822050 	add	r2, r2, #80	; 0x50
  24:	e3a03456 	mov	r3, #1442840576	; 0x56000000
  28:	e2833050 	add	r3, r3, #80	; 0x50
  2c:	e5933000 	ldr	r3, [r3]
  30:	e3c33c3f 	bic	r3, r3, #16128	; 0x3f00
  34:	e5823000 	str	r3, [r2]
  38:	e3a02456 	mov	r2, #1442840576	; 0x56000000
  3c:	e2822050 	add	r2, r2, #80	; 0x50
  40:	e3a03456 	mov	r3, #1442840576	; 0x56000000
  44:	e2833050 	add	r3, r3, #80	; 0x50
  48:	e5933000 	ldr	r3, [r3]
  4c:	e3833c15 	orr	r3, r3, #5376	; 0x1500
  50:	e5823000 	str	r3, [r2]
  54:	e3a02456 	mov	r2, #1442840576	; 0x56000000
  58:	e2822050 	add	r2, r2, #80	; 0x50
  5c:	e3a03456 	mov	r3, #1442840576	; 0x56000000
  60:	e2833050 	add	r3, r3, #80	; 0x50
  64:	e5933000 	ldr	r3, [r3]
  68:	e3c33033 	bic	r3, r3, #51	; 0x33
  6c:	e5823000 	str	r3, [r2]
  70:	e3a02456 	mov	r2, #1442840576	; 0x56000000
  74:	e2822060 	add	r2, r2, #96	; 0x60
  78:	e3a03456 	mov	r3, #1442840576	; 0x56000000
  7c:	e2833060 	add	r3, r3, #96	; 0x60
  80:	e5933000 	ldr	r3, [r3]
  84:	e3c330ff 	bic	r3, r3, #255	; 0xff
  88:	e5823000 	str	r3, [r2]
  8c:	e3a03456 	mov	r3, #1442840576	; 0x56000000
  90:	e2833054 	add	r3, r3, #84	; 0x54
  94:	e5933000 	ldr	r3, [r3]
  98:	e50b3010 	str	r3, [fp, #-16]
  9c:	e3a03456 	mov	r3, #1442840576	; 0x56000000
  a0:	e2833064 	add	r3, r3, #100	; 0x64
  a4:	e5933000 	ldr	r3, [r3]
  a8:	e50b3014 	str	r3, [fp, #-20]
  ac:	e51b3010 	ldr	r3, [fp, #-16]
  b0:	e2033001 	and	r3, r3, #1	; 0x1
  b4:	e3530000 	cmp	r3, #0	; 0x0
  b8:	0a000007 	beq	dc <main+0xd0>
  bc:	e3a02456 	mov	r2, #1442840576	; 0x56000000
  c0:	e2822050 	add	r2, r2, #80	; 0x50
  c4:	e3a03456 	mov	r3, #1442840576	; 0x56000000
  c8:	e2833050 	add	r3, r3, #80	; 0x50
  cc:	e5933000 	ldr	r3, [r3]
  d0:	e3833040 	orr	r3, r3, #64	; 0x40
  d4:	e5823000 	str	r3, [r2]
  d8:	ea000006 	b	f8 <main+0xec>
  dc:	e3a02456 	mov	r2, #1442840576	; 0x56000000
  e0:	e2822050 	add	r2, r2, #80	; 0x50
  e4:	e3a03456 	mov	r3, #1442840576	; 0x56000000
  e8:	e2833050 	add	r3, r3, #80	; 0x50
  ec:	e5933000 	ldr	r3, [r3]
  f0:	e3c33040 	bic	r3, r3, #64	; 0x40
  f4:	e5823000 	str	r3, [r2]
  f8:	e51b3010 	ldr	r3, [fp, #-16]
  fc:	e2033004 	and	r3, r3, #4	; 0x4
 100:	e3530000 	cmp	r3, #0	; 0x0
 104:	0a000007 	beq	128 <main+0x11c>
 108:	e3a02456 	mov	r2, #1442840576	; 0x56000000
 10c:	e2822050 	add	r2, r2, #80	; 0x50
 110:	e3a03456 	mov	r3, #1442840576	; 0x56000000
 114:	e2833050 	add	r3, r3, #80	; 0x50
 118:	e5933000 	ldr	r3, [r3]
 11c:	e3833020 	orr	r3, r3, #32	; 0x20
 120:	e5823000 	str	r3, [r2]
 124:	ea000006 	b	144 <main+0x138>
 128:	e3a02456 	mov	r2, #1442840576	; 0x56000000
 12c:	e2822050 	add	r2, r2, #80	; 0x50
 130:	e3a03456 	mov	r3, #1442840576	; 0x56000000
 134:	e2833050 	add	r3, r3, #80	; 0x50
 138:	e5933000 	ldr	r3, [r3]
 13c:	e3c33020 	bic	r3, r3, #32	; 0x20
 140:	e5823000 	str	r3, [r2]
 144:	e51b3014 	ldr	r3, [fp, #-20]
 148:	e2033008 	and	r3, r3, #8	; 0x8
 14c:	e3530000 	cmp	r3, #0	; 0x0
 150:	0a000007 	beq	174 <main+0x168>
 154:	e3a02456 	mov	r2, #1442840576	; 0x56000000
 158:	e2822050 	add	r2, r2, #80	; 0x50
 15c:	e3a03456 	mov	r3, #1442840576	; 0x56000000
 160:	e2833050 	add	r3, r3, #80	; 0x50
 164:	e5933000 	ldr	r3, [r3]
 168:	e3833010 	orr	r3, r3, #16	; 0x10
 16c:	e5823000 	str	r3, [r2]
 170:	eaffffc5 	b	8c <main+0x80>
 174:	e3a02456 	mov	r2, #1442840576	; 0x56000000
 178:	e2822050 	add	r2, r2, #80	; 0x50
 17c:	e3a03456 	mov	r3, #1442840576	; 0x56000000
 180:	e2833050 	add	r3, r3, #80	; 0x50
 184:	e5933000 	ldr	r3, [r3]
 188:	e3c33010 	bic	r3, r3, #16	; 0x10
 18c:	e5823000 	str	r3, [r2]
 190:	eaffffbd 	b	8c <main+0x80>
Disassembly of section .comment:

00000000 <.comment>:
   0:	43434700 	cmpmi	r3, #0	; 0x0
   4:	4728203a 	undefined
   8:	2029554e 	eorcs	r5, r9, lr, asr #10
   c:	2e342e33 	mrccs	14, 1, r2, cr4, cr3, {1}
  10:	Address 0x10 is out of bounds.

